target datalayout = "e-m:e-p270:32:32-p271:32:32-p272:64:64-i64:64-i128:128-f80:128-n8:16:32:64-S128"
target triple = "x86_64-pc-linux-gnu"

%"class.std::__cxx11::basic_string" = type { %"struct.std::__cxx11::basic_string<char>::_Alloc_hider", i64, %union.anon }
%"struct.std::__cxx11::basic_string<char>::_Alloc_hider" = type { ptr }
%union.anon = type { i64, [8 x i8] }
%"class.std::basic_ostream" = type { ptr, %"class.std::basic_ios" }
%"class.std::basic_ios" = type { %"class.std::ios_base", ptr, i8, i8, ptr, ptr, ptr, ptr }
%"class.std::ios_base" = type { ptr, i64, i64, i32, i32, i32, ptr, %"struct.std::ios_base::_Words", [8 x %"struct.std::ios_base::_Words"], i32, ptr, %"class.std::locale" }
%"struct.std::ios_base::_Words" = type { ptr, i64 }
%"class.std::locale" = type { ptr }

@_ZN9benchmark12_GLOBAL__N_117default_time_unitE = internal global i32 0, align 4
@_ZSt4cerr = external global %"class.std::basic_ostream", align 8
@_ZN9benchmark8internal12HelperPrintfE = hidden global ptr null, align 8
@_ZSt4cout = external global %"class.std::basic_ostream", align 8
@.str.55 = private unnamed_addr constant [2 x i8] c"s\00", align 1
@.str.56 = private unnamed_addr constant [3 x i8] c"ms\00", align 1
@.str.57 = private unnamed_addr constant [3 x i8] c"us\00", align 1
@.str.58 = private unnamed_addr constant [3 x i8] c"ns\00", align 1

; Function Attrs: mustprogress nounwind uwtable
define available_externally noundef i64 @_ZNKSt7__cxx1112basic_stringIcSt11char_traitsIcESaIcEE4sizeEv(ptr noundef nonnull align 8 dereferenceable(32) %0) #6 align 2 {
  %2 = alloca ptr, align 8
  store ptr %0, ptr %2, align 8, !tbaa !13
  %3 = load ptr, ptr %2, align 8
  %4 = getelementptr inbounds nuw %"class.std::__cxx11::basic_string", ptr %3, i32 0, i32 1
  %5 = load i64, ptr %4, align 8, !tbaa !418
  ret i64 %5
}

; Function Attrs: mustprogress uwtable
define hidden void @_ZN9benchmark8internal17PrintUsageAndExitEv() #1 {
  %1 = load ptr, ptr @_ZN9benchmark8internal12HelperPrintfE, align 8, !tbaa !21
  call void %1()
  %2 = call noundef nonnull align 8 dereferenceable(8) ptr @_ZSt5flushIcSt11char_traitsIcEERSt13basic_ostreamIT_T0_ES6_(ptr noundef nonnull align 8 dereferenceable(8) @_ZSt4cout)
  %3 = call noundef nonnull align 8 dereferenceable(8) ptr @_ZSt5flushIcSt11char_traitsIcEERSt13basic_ostreamIT_T0_ES6_(ptr noundef nonnull align 8 dereferenceable(8) @_ZSt4cerr)
  call void @exit(i32 noundef 0) #24
  unreachable
}

; Function Attrs: mustprogress nounwind uwtable
define available_externally noundef zeroext i1 @_ZNKSt7__cxx1112basic_stringIcSt11char_traitsIcESaIcEE5emptyEv(ptr noundef nonnull align 8 dereferenceable(32) %0) #6 align 2 {
  %2 = alloca ptr, align 8
  store ptr %0, ptr %2, align 8, !tbaa !13
  %3 = load ptr, ptr %2, align 8
  %4 = call noundef i64 @_ZNKSt7__cxx1112basic_stringIcSt11char_traitsIcESaIcEE4sizeEv(ptr noundef nonnull align 8 dereferenceable(32) %3) #4
  %5 = icmp eq i64 %4, 0
  ret i1 %5
}

; Function Attrs: mustprogress nounwind uwtable
define void @_ZN9benchmark18SetDefaultTimeUnitENS_8TimeUnitE(i32 noundef %0) #6 {
  %2 = alloca i32, align 4
  store i32 %0, ptr %2, align 4, !tbaa !213
  %3 = load i32, ptr %2, align 4, !tbaa !213
  store i32 %3, ptr @_ZN9benchmark12_GLOBAL__N_117default_time_unitE, align 4, !tbaa !213
  ret void
}

; Function Attrs: inlinehint mustprogress nounwind uwtable
define linkonce_odr noundef zeroext i1 @_ZSteqIcSt11char_traitsIcESaIcEEbRKNSt7__cxx1112basic_stringIT_T0_T1_EEPKS5_(ptr noundef nonnull align 8 dereferenceable(32) %0, ptr noundef %1) #9 comdat {
  %3 = alloca ptr, align 8
  %4 = alloca ptr, align 8
  store ptr %0, ptr %3, align 8, !tbaa !13
  store ptr %1, ptr %4, align 8, !tbaa !15
  %5 = load ptr, ptr %3, align 8, !tbaa !13
  %6 = load ptr, ptr %4, align 8, !tbaa !15
  %7 = call noundef i32 @_ZNKSt7__cxx1112basic_stringIcSt11char_traitsIcESaIcEE7compareEPKc(ptr noundef nonnull align 8 dereferenceable(32) %5, ptr noundef %6) #4
  %8 = icmp eq i32 %7, 0
  ret i1 %8
}

; Function Attrs: mustprogress uwtable
define hidden void @_ZN9benchmark8internal26SetDefaultTimeUnitFromFlagERKNSt7__cxx1112basic_stringIcSt11char_traitsIcESaIcEEE(ptr noundef nonnull align 8 dereferenceable(32) %0) #1 {
  %2 = alloca ptr, align 8
  store ptr %0, ptr %2, align 8, !tbaa !13
  %3 = load ptr, ptr %2, align 8, !tbaa !13
  %4 = call noundef zeroext i1 @_ZSteqIcSt11char_traitsIcESaIcEEbRKNSt7__cxx1112basic_stringIT_T0_T1_EEPKS5_(ptr noundef nonnull align 8 dereferenceable(32) %3, ptr noundef @.str.55)
  br i1 %4, label %5, label %6

5:                                                ; preds = %1
  call void @_ZN9benchmark18SetDefaultTimeUnitENS_8TimeUnitE(i32 noundef 3)
  br label %22

6:                                                ; preds = %1
  %7 = load ptr, ptr %2, align 8, !tbaa !13
  %8 = call noundef zeroext i1 @_ZSteqIcSt11char_traitsIcESaIcEEbRKNSt7__cxx1112basic_stringIT_T0_T1_EEPKS5_(ptr noundef nonnull align 8 dereferenceable(32) %7, ptr noundef @.str.56)
  br i1 %8, label %9, label %10

9:                                                ; preds = %6
  call void @_ZN9benchmark18SetDefaultTimeUnitENS_8TimeUnitE(i32 noundef 2)
  br label %22

10:                                               ; preds = %6
  %11 = load ptr, ptr %2, align 8, !tbaa !13
  %12 = call noundef zeroext i1 @_ZSteqIcSt11char_traitsIcESaIcEEbRKNSt7__cxx1112basic_stringIT_T0_T1_EEPKS5_(ptr noundef nonnull align 8 dereferenceable(32) %11, ptr noundef @.str.57)
  br i1 %12, label %13, label %14

13:                                               ; preds = %10
  call void @_ZN9benchmark18SetDefaultTimeUnitENS_8TimeUnitE(i32 noundef 1)
  br label %22

14:                                               ; preds = %10
  %15 = load ptr, ptr %2, align 8, !tbaa !13
  %16 = call noundef zeroext i1 @_ZSteqIcSt11char_traitsIcESaIcEEbRKNSt7__cxx1112basic_stringIT_T0_T1_EEPKS5_(ptr noundef nonnull align 8 dereferenceable(32) %15, ptr noundef @.str.58)
  br i1 %16, label %17, label %18

17:                                               ; preds = %14
  call void @_ZN9benchmark18SetDefaultTimeUnitENS_8TimeUnitE(i32 noundef 0)
  br label %22

18:                                               ; preds = %14
  %19 = load ptr, ptr %2, align 8, !tbaa !13
  %20 = call noundef zeroext i1 @_ZNKSt7__cxx1112basic_stringIcSt11char_traitsIcESaIcEE5emptyEv(ptr noundef nonnull align 8 dereferenceable(32) %19) #4
  br i1 %20, label %22, label %21

21:                                               ; preds = %18
  call void @_ZN9benchmark8internal17PrintUsageAndExitEv()
  br label %22

22:                                               ; preds = %5, %9, %13, %17, %21, %18
  ret void
}