; Function Attrs: mustprogress uwtable
define hidden void @_ZN9benchmark8internal26SetDefaultTimeUnitFromFlagERKNSt7__cxx1112basic_stringIcSt11char_traitsIcESaIcEEE(ptr noundef nonnull align 8 dereferenceable(32) %0) local_unnamed_addr #0 {
  %2 = tail call noundef i32 @_ZNKSt7__cxx1112basic_stringIcSt11char_traitsIcESaIcEE7compareEPKc(ptr noundef nonnull align 8 dereferenceable(32) %0, ptr noundef nonnull @.str.55) #32
  %3 = icmp eq i32 %2, 0
  br i1 %3, label %.sink.split, label %4

4:                                                ; preds = %1
  %5 = tail call noundef i32 @_ZNKSt7__cxx1112basic_stringIcSt11char_traitsIcESaIcEE7compareEPKc(ptr noundef nonnull align 8 dereferenceable(32) %0, ptr noundef nonnull @.str.56) #32
  %6 = icmp eq i32 %5, 0
  br i1 %6, label %.sink.split, label %7

7:                                                ; preds = %4
  %8 = tail call noundef i32 @_ZNKSt7__cxx1112basic_stringIcSt11char_traitsIcESaIcEE7compareEPKc(ptr noundef nonnull align 8 dereferenceable(32) %0, ptr noundef nonnull @.str.57) #32
  %9 = icmp eq i32 %8, 0
  br i1 %9, label %.sink.split, label %10

10:                                               ; preds = %7
  %11 = tail call noundef i32 @_ZNKSt7__cxx1112basic_stringIcSt11char_traitsIcESaIcEE7compareEPKc(ptr noundef nonnull align 8 dereferenceable(32) %0, ptr noundef nonnull @.str.58) #32
  %12 = icmp eq i32 %11, 0
  br i1 %12, label %.sink.split, label %13

13:                                               ; preds = %10
  %14 = getelementptr inbounds nuw i8, ptr %0, i64 8
  %15 = load i64, ptr %14, align 8, !tbaa !51
  %16 = icmp eq i64 %15, 0
  br i1 %16, label %21, label %17

17:                                               ; preds = %13
  %18 = load ptr, ptr @_ZN9benchmark8internal12HelperPrintfE, align 8, !tbaa !13
  tail call void %18()
  %19 = tail call noundef nonnull align 8 dereferenceable(8) ptr @_ZSt5flushIcSt11char_traitsIcEERSt13basic_ostreamIT_T0_ES6_(ptr noundef nonnull align 8 dereferenceable(8) @_ZSt4cout)
  %20 = tail call noundef nonnull align 8 dereferenceable(8) ptr @_ZSt5flushIcSt11char_traitsIcEERSt13basic_ostreamIT_T0_ES6_(ptr noundef nonnull align 8 dereferenceable(8) @_ZSt4cerr)
  tail call void @exit(i32 noundef 0) #33
  unreachable

.sink.split:                                      ; preds = %10, %7, %4, %1
  %.sink = phi i32 [ 3, %1 ], [ 2, %4 ], [ 1, %7 ], [ 0, %10 ]
  store i32 %.sink, ptr @_ZN9benchmark12_GLOBAL__N_117default_time_unitE, align 4, !tbaa !250
  br label %21

21:                                               ; preds = %.sink.split, %13
  ret void
}